; Function Attrs: mustprogress nofree norecurse nosync nounwind memory(read, argmem: readwrite, inaccessiblemem: none) uwtable
define hidden void @_ZN6Assimp25FindMeshCenterTransformedEP6aiMeshR10aiVector3tIfES4_S4_RK12aiMatrix4x4tIfE(ptr noundef readonly captures(none) %0, ptr noundef nonnull writeonly align 4 captures(none) dereferenceable(12) initializes((0, 12)) %1, ptr noundef nonnull align 4 captures(none) dereferenceable(12) initializes((0, 12)) %2, ptr noundef nonnull align 4 captures(none) dereferenceable(12) initializes((0, 12)) %3, ptr noundef nonnull readonly align 4 captures(none) dereferenceable(64) %4) local_unnamed_addr #3 {
  tail call void @_ZN6Assimp19FindAABBTransformedEPK6aiMeshR10aiVector3tIfES5_RK12aiMatrix4x4tIfE(ptr noundef %0, ptr noundef nonnull align 4 dereferenceable(12) %2, ptr noundef nonnull align 4 dereferenceable(12) %3, ptr noundef nonnull align 4 dereferenceable(64) %4)
  %6 = load float, ptr %3, align 4
  %7 = load float, ptr %2, align 4
  %8 = fsub float %6, %7
  %9 = getelementptr inbounds nuw i8, ptr %3, i64 4
  %10 = load float, ptr %9, align 4
  %11 = getelementptr inbounds nuw i8, ptr %2, i64 4
  %12 = load float, ptr %11, align 4
  %13 = fsub float %10, %12
  %14 = getelementptr inbounds nuw i8, ptr %3, i64 8
  %15 = load float, ptr %14, align 4
  %16 = getelementptr inbounds nuw i8, ptr %2, i64 8
  %17 = load float, ptr %16, align 4
  %18 = fsub float %15, %17
  %19 = fmul float %8, 5.000000e-01
  %20 = fmul float %13, 5.000000e-01
  %21 = fmul float %18, 5.000000e-01
  %22 = fadd float %7, %19
  %23 = fadd float %12, %20
  %24 = fadd float %17, %21
  %.sroa.0.0.vec.insert.i21 = insertelement <2 x float> poison, float %22, i64 0
  %.sroa.0.4.vec.insert.i22 = insertelement <2 x float> %.sroa.0.0.vec.insert.i21, float %23, i64 1
  store <2 x float> %.sroa.0.4.vec.insert.i22, ptr %1, align 4
  %.sroa.4.0..sroa_idx = getelementptr inbounds nuw i8, ptr %1, i64 8
  store float %24, ptr %.sroa.4.0..sroa_idx, align 4
  ret void
}